target datalayout = "e-m:e-p270:32:32-p271:32:32-p272:64:64-i64:64-i128:128-f80:128-n8:16:32:64-S128"
target triple = "x86_64-pc-linux-gnu"

@_set_smaps_file.use_smaps_rollup = internal global i32 -1, align 4
@.str = private unnamed_addr constant [22 x i8] c"/proc/%d/smaps_rollup\00", align 1
@.str.1 = private unnamed_addr constant [2 x i8] c"r\00", align 1
@.str.2 = private unnamed_addr constant [15 x i8] c"/proc/%d/smaps\00", align 1

; Function Attrs: nounwind uwtable
define dso_local void @_set_smaps_file(ptr noundef %0, i32 noundef %1) #0 {
  %3 = alloca ptr, align 8
  %4 = alloca i32, align 4
  %5 = alloca ptr, align 8
  %6 = alloca i32, align 4
  store ptr %0, ptr %3, align 8
  store i32 %1, ptr %4, align 4
  %7 = load i32, ptr @_set_smaps_file.use_smaps_rollup, align 4
  %8 = icmp eq i32 %7, -1
  br i1 %8, label %9, label %24

9:                                                ; preds = %2
  %10 = load ptr, ptr %3, align 8
  %11 = load i32, ptr %4, align 4
  call void (ptr, ptr, ...) @slurm_xstrfmtcat(ptr noundef %10, ptr noundef @.str, i32 noundef %11)
  call void @llvm.lifetime.start.p0(i64 8, ptr %5) #10
  %12 = load ptr, ptr %3, align 8
  %13 = load ptr, ptr %12, align 8
  %14 = call noalias ptr @fopen(ptr noundef %13, ptr noundef @.str.1)
  store ptr %14, ptr %5, align 8
  %15 = load ptr, ptr %5, align 8
  %16 = icmp ne ptr %15, null
  br i1 %16, label %17, label %20

17:                                               ; preds = %9
  %18 = load ptr, ptr %5, align 8
  %19 = call i32 @fclose(ptr noundef %18)
  store i32 1, ptr @_set_smaps_file.use_smaps_rollup, align 4
  store i32 1, ptr %6, align 4
  br label %21

20:                                               ; preds = %9
  store i32 0, ptr @_set_smaps_file.use_smaps_rollup, align 4
  store i32 0, ptr %6, align 4
  br label %21

21:                                               ; preds = %20, %17
  call void @llvm.lifetime.end.p0(i64 8, ptr %5) #10
  %22 = load i32, ptr %6, align 4
  switch i32 %22, label %34 [
    i32 0, label %23
    i32 1, label %33
  ]

23:                                               ; preds = %21
  br label %24

24:                                               ; preds = %23, %2
  %25 = load i32, ptr @_set_smaps_file.use_smaps_rollup, align 4
  %26 = icmp ne i32 %25, 0
  br i1 %26, label %27, label %30

27:                                               ; preds = %24
  %28 = load ptr, ptr %3, align 8
  %29 = load i32, ptr %4, align 4
  call void (ptr, ptr, ...) @slurm_xstrfmtcat(ptr noundef %28, ptr noundef @.str, i32 noundef %29)
  br label %33

30:                                               ; preds = %24
  %31 = load ptr, ptr %3, align 8
  %32 = load i32, ptr %4, align 4
  call void (ptr, ptr, ...) @slurm_xstrfmtcat(ptr noundef %31, ptr noundef @.str.2, i32 noundef %32)
  br label %33

33:                                               ; preds = %21, %30, %27
  ret void

34:                                               ; preds = %21
  unreachable
}