; Function Attrs: nounwind uwtable
define dso_local void @_set_smaps_file(ptr noundef %0, i32 noundef %1) local_unnamed_addr #0 {
  %3 = load i32, ptr @_set_smaps_file.use_smaps_rollup, align 4
  switch i32 %3, label %9 [
    i32 -1, label %4
    i32 0, label %10
  ]

4:                                                ; preds = %2
  tail call void (ptr, ptr, ...) @slurm_xstrfmtcat(ptr noundef %0, ptr noundef nonnull @.str, i32 noundef %1) #17
  %5 = load ptr, ptr %0, align 8
  %6 = tail call noalias ptr @fopen(ptr noundef %5, ptr noundef nonnull @.str.1)
  %.not = icmp eq ptr %6, null
  br i1 %.not, label %.thread14, label %7

.thread14:                                        ; preds = %4
  store i32 0, ptr @_set_smaps_file.use_smaps_rollup, align 4
  br label %10

7:                                                ; preds = %4
  %8 = tail call i32 @fclose(ptr noundef nonnull %6)
  store i32 1, ptr @_set_smaps_file.use_smaps_rollup, align 4
  br label %11

9:                                                ; preds = %2
  tail call void (ptr, ptr, ...) @slurm_xstrfmtcat(ptr noundef %0, ptr noundef nonnull @.str, i32 noundef %1) #17
  br label %11

10:                                               ; preds = %2, %.thread14
  tail call void (ptr, ptr, ...) @slurm_xstrfmtcat(ptr noundef %0, ptr noundef nonnull @.str.2, i32 noundef %1) #17
  br label %11

11:                                               ; preds = %7, %10, %9
  ret void
}